; ModuleID = 'source-C-CXX/41/984.cpp'
source_filename = "source-C-CXX/41/984.cpp"
target datalayout = "e-m:e-p270:32:32-p271:32:32-p272:64:64-i64:64-f80:128-n8:16:32:64-S128"
target triple = "x86_64-pc-linux-gnu"

%"class.std::ios_base::Init" = type { i8 }
%"class.std::basic_istream" = type { i32 (...)**, i64, %"class.std::basic_ios" }
%"class.std::basic_ios" = type { %"class.std::ios_base", %"class.std::basic_ostream"*, i8, i8, %"class.std::basic_streambuf"*, %"class.std::ctype"*, %"class.std::num_put"*, %"class.std::num_get"* }
%"class.std::ios_base" = type { i32 (...)**, i64, i64, i32, i32, i32, %"struct.std::ios_base::_Callback_list"*, %"struct.std::ios_base::_Words", [8 x %"struct.std::ios_base::_Words"], i32, %"struct.std::ios_base::_Words"*, %"class.std::locale" }
%"struct.std::ios_base::_Callback_list" = type { %"struct.std::ios_base::_Callback_list"*, void (i32, %"class.std::ios_base"*, i32)*, i32, i32 }
%"struct.std::ios_base::_Words" = type { i8*, i64 }
%"class.std::locale" = type { %"class.std::locale::_Impl"* }
%"class.std::locale::_Impl" = type { i32, %"class.std::locale::facet"**, i64, %"class.std::locale::facet"**, i8** }
%"class.std::locale::facet" = type <{ i32 (...)**, i32, [4 x i8] }>
%"class.std::basic_ostream" = type { i32 (...)**, %"class.std::basic_ios" }
%"class.std::basic_streambuf" = type { i32 (...)**, i8*, i8*, i8*, i8*, i8*, i8*, %"class.std::locale" }
%"class.std::ctype" = type <{ %"class.std::locale::facet.base", [4 x i8], %struct.__locale_struct*, i8, [7 x i8], i32*, i32*, i16*, i8, [256 x i8], [256 x i8], i8, [6 x i8] }>
%"class.std::locale::facet.base" = type <{ i32 (...)**, i32 }>
%struct.__locale_struct = type { [13 x %struct.__locale_data*], i16*, i32*, i32*, [13 x i8*] }
%struct.__locale_data = type opaque
%"class.std::num_put" = type { %"class.std::locale::facet.base", [4 x i8] }
%"class.std::num_get" = type { %"class.std::locale::facet.base", [4 x i8] }

@_ZStL8__ioinit = internal global %"class.std::ios_base::Init" zeroinitializer, align 1
@__dso_handle = external hidden global i8
@_ZSt3cin = external global %"class.std::basic_istream", align 8
@_ZSt4cout = external global %"class.std::basic_ostream", align 8
@.str = private unnamed_addr constant [2 x i8] c" \00", align 1
@llvm.global_ctors = appending global [1 x { i32, void ()*, i8* }] [{ i32, void ()*, i8* } { i32 65535, void ()* @_GLOBAL__sub_I_984.cpp, i8* null }]

declare void @_ZNSt8ios_base4InitC1Ev(%"class.std::ios_base::Init"* nonnull align 1 dereferenceable(1)) unnamed_addr #0

; Function Attrs: nounwind
declare void @_ZNSt8ios_base4InitD1Ev(%"class.std::ios_base::Init"* nonnull align 1 dereferenceable(1)) unnamed_addr #1

; Function Attrs: nofree nounwind
declare i32 @__cxa_atexit(void (i8*)*, i8*, i8*) local_unnamed_addr #2

; Function Attrs: mustprogress norecurse sspstrong uwtable
define dso_local i32 @main() local_unnamed_addr #3 {
  %1 = alloca i32, align 4
  %2 = alloca i32, align 4
  %3 = bitcast i32* %1 to i8*
  call void @llvm.lifetime.start.p0i8(i64 4, i8* nonnull %3) #7
  %4 = bitcast i32* %2 to i8*
  call void @llvm.lifetime.start.p0i8(i64 4, i8* nonnull %4) #7
  %5 = call nonnull align 8 dereferenceable(16) %"class.std::basic_istream"* @_ZNSirsERi(%"class.std::basic_istream"* nonnull align 8 dereferenceable(16) @_ZSt3cin, i32* nonnull align 4 dereferenceable(4) %1)
  %6 = load i32, i32* %1, align 4, !tbaa !5
  %7 = zext i32 %6 to i64
  %8 = call i8* @llvm.stacksave()
  %9 = alloca i32, i64 %7, align 16
  %10 = load i32, i32* %1, align 4, !tbaa !5
  %11 = icmp sgt i32 %10, 0
  br i1 %11, label %12, label %20

12:                                               ; preds = %0, %12
  %13 = phi i64 [ %16, %12 ], [ 0, %0 ]
  %14 = getelementptr inbounds i32, i32* %9, i64 %13
  %15 = call nonnull align 8 dereferenceable(16) %"class.std::basic_istream"* @_ZNSirsERi(%"class.std::basic_istream"* nonnull align 8 dereferenceable(16) @_ZSt3cin, i32* nonnull align 4 dereferenceable(4) %14)
  %16 = add nuw nsw i64 %13, 1
  %17 = load i32, i32* %1, align 4, !tbaa !5
  %18 = sext i32 %17 to i64
  %19 = icmp slt i64 %16, %18
  br i1 %19, label %12, label %20, !llvm.loop !9

20:                                               ; preds = %12, %0
  %21 = call nonnull align 8 dereferenceable(16) %"class.std::basic_istream"* @_ZNSirsERi(%"class.std::basic_istream"* nonnull align 8 dereferenceable(16) @_ZSt3cin, i32* nonnull align 4 dereferenceable(4) %2)
  %22 = load i32, i32* %2, align 4
  %23 = load i32, i32* %1, align 4, !tbaa !5
  %24 = icmp sgt i32 %23, 0
  br i1 %24, label %27, label %132

25:                                               ; preds = %111
  %26 = icmp sgt i32 %112, 0
  br i1 %26, label %116, label %132

27:                                               ; preds = %20, %111
  %28 = phi i32 [ %112, %111 ], [ %23, %20 ]
  %29 = phi i32 [ %114, %111 ], [ 0, %20 ]
  %30 = sext i32 %29 to i64
  %31 = getelementptr inbounds i32, i32* %9, i64 %30
  %32 = load i32, i32* %31, align 4, !tbaa !5
  %33 = icmp eq i32 %32, %22
  br i1 %33, label %34, label %111

34:                                               ; preds = %27
  %35 = icmp slt i32 %29, %28
  br i1 %35, label %36, label %108

36:                                               ; preds = %34
  %37 = sext i32 %28 to i64
  %38 = sub nsw i64 %37, %30
  %39 = icmp ult i64 %38, 8
  br i1 %39, label %99, label %40

40:                                               ; preds = %36
  %41 = and i64 %38, -8
  %42 = add nsw i64 %41, %30
  %43 = add nsw i64 %41, -8
  %44 = lshr exact i64 %43, 3
  %45 = add nuw nsw i64 %44, 1
  %46 = and i64 %45, 1
  %47 = icmp eq i64 %43, 0
  br i1 %47, label %81, label %48

48:                                               ; preds = %40
  %49 = and i64 %45, 4611686018427387902
  br label %50

50:                                               ; preds = %50, %48
  %51 = phi i64 [ 0, %48 ], [ %78, %50 ]
  %52 = phi i64 [ %49, %48 ], [ %79, %50 ]
  %53 = add i64 %51, %30
  %54 = add nsw i64 %53, 1
  %55 = getelementptr inbounds i32, i32* %9, i64 %54
  %56 = bitcast i32* %55 to <4 x i32>*
  %57 = load <4 x i32>, <4 x i32>* %56, align 4, !tbaa !5
  %58 = getelementptr inbounds i32, i32* %55, i64 4
  %59 = bitcast i32* %58 to <4 x i32>*
  %60 = load <4 x i32>, <4 x i32>* %59, align 4, !tbaa !5
  %61 = getelementptr inbounds i32, i32* %9, i64 %53
  %62 = bitcast i32* %61 to <4 x i32>*
  store <4 x i32> %57, <4 x i32>* %62, align 4, !tbaa !5
  %63 = getelementptr inbounds i32, i32* %61, i64 4
  %64 = bitcast i32* %63 to <4 x i32>*
  store <4 x i32> %60, <4 x i32>* %64, align 4, !tbaa !5
  %65 = or i64 %51, 8
  %66 = add i64 %65, %30
  %67 = add nsw i64 %66, 1
  %68 = getelementptr inbounds i32, i32* %9, i64 %67
  %69 = bitcast i32* %68 to <4 x i32>*
  %70 = load <4 x i32>, <4 x i32>* %69, align 4, !tbaa !5
  %71 = getelementptr inbounds i32, i32* %68, i64 4
  %72 = bitcast i32* %71 to <4 x i32>*
  %73 = load <4 x i32>, <4 x i32>* %72, align 4, !tbaa !5
  %74 = getelementptr inbounds i32, i32* %9, i64 %66
  %75 = bitcast i32* %74 to <4 x i32>*
  store <4 x i32> %70, <4 x i32>* %75, align 4, !tbaa !5
  %76 = getelementptr inbounds i32, i32* %74, i64 4
  %77 = bitcast i32* %76 to <4 x i32>*
  store <4 x i32> %73, <4 x i32>* %77, align 4, !tbaa !5
  %78 = add nuw i64 %51, 16
  %79 = add i64 %52, -2
  %80 = icmp eq i64 %79, 0
  br i1 %80, label %81, label %50, !llvm.loop !11

81:                                               ; preds = %50, %40
  %82 = phi i64 [ 0, %40 ], [ %78, %50 ]
  %83 = icmp eq i64 %46, 0
  br i1 %83, label %97, label %84

84:                                               ; preds = %81
  %85 = add i64 %82, %30
  %86 = add nsw i64 %85, 1
  %87 = getelementptr inbounds i32, i32* %9, i64 %86
  %88 = bitcast i32* %87 to <4 x i32>*
  %89 = load <4 x i32>, <4 x i32>* %88, align 4, !tbaa !5
  %90 = getelementptr inbounds i32, i32* %87, i64 4
  %91 = bitcast i32* %90 to <4 x i32>*
  %92 = load <4 x i32>, <4 x i32>* %91, align 4, !tbaa !5
  %93 = getelementptr inbounds i32, i32* %9, i64 %85
  %94 = bitcast i32* %93 to <4 x i32>*
  store <4 x i32> %89, <4 x i32>* %94, align 4, !tbaa !5
  %95 = getelementptr inbounds i32, i32* %93, i64 4
  %96 = bitcast i32* %95 to <4 x i32>*
  store <4 x i32> %92, <4 x i32>* %96, align 4, !tbaa !5
  br label %97

97:                                               ; preds = %81, %84
  %98 = icmp eq i64 %38, %41
  br i1 %98, label %108, label %99

99:                                               ; preds = %36, %97
  %100 = phi i64 [ %30, %36 ], [ %42, %97 ]
  br label %101

101:                                              ; preds = %99, %101
  %102 = phi i64 [ %103, %101 ], [ %100, %99 ]
  %103 = add nsw i64 %102, 1
  %104 = getelementptr inbounds i32, i32* %9, i64 %103
  %105 = load i32, i32* %104, align 4, !tbaa !5
  %106 = getelementptr inbounds i32, i32* %9, i64 %102
  store i32 %105, i32* %106, align 4, !tbaa !5
  %107 = icmp eq i64 %103, %37
  br i1 %107, label %108, label %101, !llvm.loop !13

108:                                              ; preds = %101, %97, %34
  %109 = add nsw i32 %28, -1
  store i32 %109, i32* %1, align 4, !tbaa !5
  %110 = add nsw i32 %29, -1
  br label %111

111:                                              ; preds = %27, %108
  %112 = phi i32 [ %109, %108 ], [ %28, %27 ]
  %113 = phi i32 [ %110, %108 ], [ %29, %27 ]
  %114 = add nsw i32 %113, 1
  %115 = icmp slt i32 %114, %112
  br i1 %115, label %27, label %25, !llvm.loop !15

116:                                              ; preds = %25, %127
  %117 = phi i64 [ %128, %127 ], [ 0, %25 ]
  %118 = phi i32 [ %129, %127 ], [ %112, %25 ]
  %119 = add nsw i32 %118, -1
  %120 = sext i32 %119 to i64
  %121 = icmp slt i64 %117, %120
  %122 = getelementptr inbounds i32, i32* %9, i64 %117
  %123 = load i32, i32* %122, align 4, !tbaa !5
  %124 = call nonnull align 8 dereferenceable(8) %"class.std::basic_ostream"* @_ZNSolsEi(%"class.std::basic_ostream"* nonnull align 8 dereferenceable(8) @_ZSt4cout, i32 %123)
  br i1 %121, label %125, label %127

125:                                              ; preds = %116
  %126 = call nonnull align 8 dereferenceable(8) %"class.std::basic_ostream"* @_ZSt16__ostream_insertIcSt11char_traitsIcEERSt13basic_ostreamIT_T0_ES6_PKS3_l(%"class.std::basic_ostream"* nonnull align 8 dereferenceable(8) %124, i8* nonnull getelementptr inbounds ([2 x i8], [2 x i8]* @.str, i64 0, i64 0), i64 1)
  br label %127

127:                                              ; preds = %116, %125
  %128 = add nuw nsw i64 %117, 1
  %129 = load i32, i32* %1, align 4, !tbaa !5
  %130 = sext i32 %129 to i64
  %131 = icmp slt i64 %128, %130
  br i1 %131, label %116, label %132, !llvm.loop !16

132:                                              ; preds = %127, %20, %25
  call void @llvm.stackrestore(i8* %8)
  call void @llvm.lifetime.end.p0i8(i64 4, i8* nonnull %4) #7
  call void @llvm.lifetime.end.p0i8(i64 4, i8* nonnull %3) #7
  ret i32 0
}

; Function Attrs: argmemonly mustprogress nofree nosync nounwind willreturn
declare void @llvm.lifetime.start.p0i8(i64 immarg, i8* nocapture) #4

declare nonnull align 8 dereferenceable(16) %"class.std::basic_istream"* @_ZNSirsERi(%"class.std::basic_istream"* nonnull align 8 dereferenceable(16), i32* nonnull align 4 dereferenceable(4)) local_unnamed_addr #0

; Function Attrs: mustprogress nofree nosync nounwind willreturn
declare i8* @llvm.stacksave() #5

declare nonnull align 8 dereferenceable(8) %"class.std::basic_ostream"* @_ZNSolsEi(%"class.std::basic_ostream"* nonnull align 8 dereferenceable(8), i32) local_unnamed_addr #0

; Function Attrs: mustprogress nofree nosync nounwind willreturn
declare void @llvm.stackrestore(i8*) #5

; Function Attrs: argmemonly mustprogress nofree nosync nounwind willreturn
declare void @llvm.lifetime.end.p0i8(i64 immarg, i8* nocapture) #4

declare nonnull align 8 dereferenceable(8) %"class.std::basic_ostream"* @_ZSt16__ostream_insertIcSt11char_traitsIcEERSt13basic_ostreamIT_T0_ES6_PKS3_l(%"class.std::basic_ostream"* nonnull align 8 dereferenceable(8), i8*, i64) local_unnamed_addr #0

; Function Attrs: sspstrong uwtable
define internal void @_GLOBAL__sub_I_984.cpp() #6 section ".text.startup" {
  tail call void @_ZNSt8ios_base4InitC1Ev(%"class.std::ios_base::Init"* nonnull align 1 dereferenceable(1) @_ZStL8__ioinit)
  %1 = tail call i32 @__cxa_atexit(void (i8*)* bitcast (void (%"class.std::ios_base::Init"*)* @_ZNSt8ios_base4InitD1Ev to void (i8*)*), i8* getelementptr inbounds (%"class.std::ios_base::Init", %"class.std::ios_base::Init"* @_ZStL8__ioinit, i64 0, i32 0), i8* nonnull @__dso_handle) #7
  ret void
}


!llvm.module.flags = !{!0, !1, !2, !3}
!llvm.ident = !{!4}

!0 = !{i32 1, !"wchar_size", i32 4}
!1 = !{i32 7, !"PIC Level", i32 2}
!2 = !{i32 7, !"PIE Level", i32 2}
!3 = !{i32 7, !"uwtable", i32 1}
!4 = !{!"clang version 13.0.0"}
!5 = !{!6, !6, i64 0}
!6 = !{!"int", !7, i64 0}
!7 = !{!"omnipotent char", !8, i64 0}
!8 = !{!"Simple C++ TBAA"}
!9 = distinct !{!9, !10}
!10 = !{!"llvm.loop.mustprogress"}
!11 = distinct !{!11, !10, !12}
!12 = !{!"llvm.loop.isvectorized", i32 1}
!13 = distinct !{!13, !10, !14, !12}
!14 = !{!"llvm.loop.unroll.runtime.disable"}
!15 = distinct !{!15, !10}
!16 = distinct !{!16, !10}
